; Function Attrs: mustprogress nounwind uwtable
define internal void @"_ZN9grpc_core15InterceptorListISt10unique_ptrINS_7MessageENS_5Arena13PooledDeleterEEE7MapImplIZNS_29LegacyServerCompressionFilter15MakeCallPromiseENS_8CallArgsESt8functionIFNS_12ArenaPromiseIS1_I19grpc_metadata_batchS4_EEES9_EEE3$_0ZNS6_9AppendMapISH_EEvT_NS_13DebugLocationEEUlvE_E7DestroyEPv"(ptr nocapture nonnull readnone align 8 %this, ptr nocapture noundef %memory) unnamed_addr #4 align 2 personality ptr @__gxx_personality_v0 {
entry:
  %add.ptr.i.i.i.i.i.i.i = getelementptr inbounds i8, ptr %memory, i64 40
  %0 = load ptr, ptr %add.ptr.i.i.i.i.i.i.i, align 8
  %cmp.not.i.i.i = icmp eq ptr %0, null
  br i1 %cmp.not.i.i.i, label %"_ZN9grpc_core14promise_detail11PromiseLikeINS0_7CurriedIZNS_29LegacyServerCompressionFilter15MakeCallPromiseENS_8CallArgsESt8functionIFNS_12ArenaPromiseISt10unique_ptrI19grpc_metadata_batchNS_5Arena13PooledDeleterEEEES4_EEE3$_0S7_INS_7MessageESA_EEEvED2Ev.exit", label %if.then.i.i.i

if.then.i.i.i:                                    ; preds = %entry
  %arg_.i.i = getelementptr inbounds i8, ptr %memory, i64 32
  %1 = load i8, ptr %arg_.i.i, align 1
  %2 = and i8 %1, 1
  %tobool.not.i.i.i.i = icmp eq i8 %2, 0
  br i1 %tobool.not.i.i.i.i, label %"_ZN9grpc_core14promise_detail11PromiseLikeINS0_7CurriedIZNS_29LegacyServerCompressionFilter15MakeCallPromiseENS_8CallArgsESt8functionIFNS_12ArenaPromiseISt10unique_ptrI19grpc_metadata_batchNS_5Arena13PooledDeleterEEEES4_EEE3$_0S7_INS_7MessageESA_EEEvED2Ev.exit", label %delete.notnull.i.i.i.i

delete.notnull.i.i.i.i:                           ; preds = %if.then.i.i.i
  invoke void @grpc_slice_buffer_destroy(ptr noundef nonnull %0)
          to label %_ZN9grpc_core7MessageD2Ev.exit.i.i.i.i unwind label %terminate.lpad.i.i.i.i.i.i

terminate.lpad.i.i.i.i.i.i:                       ; preds = %delete.notnull.i.i.i.i
  %3 = landingpad { ptr, i32 }
          catch ptr null
  %4 = extractvalue { ptr, i32 } %3, 0
  tail call void @__clang_call_terminate(ptr %4) #26
  unreachable

_ZN9grpc_core7MessageD2Ev.exit.i.i.i.i:           ; preds = %delete.notnull.i.i.i.i
  tail call void @_ZdlPv(ptr noundef nonnull %0) #27
  br label %"_ZN9grpc_core14promise_detail11PromiseLikeINS0_7CurriedIZNS_29LegacyServerCompressionFilter15MakeCallPromiseENS_8CallArgsESt8functionIFNS_12ArenaPromiseISt10unique_ptrI19grpc_metadata_batchNS_5Arena13PooledDeleterEEEES4_EEE3$_0S7_INS_7MessageESA_EEEvED2Ev.exit"

"_ZN9grpc_core14promise_detail11PromiseLikeINS0_7CurriedIZNS_29LegacyServerCompressionFilter15MakeCallPromiseENS_8CallArgsESt8functionIFNS_12ArenaPromiseISt10unique_ptrI19grpc_metadata_batchNS_5Arena13PooledDeleterEEEES4_EEE3$_0S7_INS_7MessageESA_EEEvED2Ev.exit": ; preds = %entry, %if.then.i.i.i, %_ZN9grpc_core7MessageD2Ev.exit.i.i.i.i
  store ptr null, ptr %add.ptr.i.i.i.i.i.i.i, align 8
  ret void
}